Certificate:
    Data:
        Version: 3 (0x2)
        Serial Number:
            24:16:0a:cc:a1:b6:81:51:e3:1e:08:79:a9:74:20:31:b1:26:fe:20
        Signature Algorithm: sha256WithRSAEncryption
        Issuer: C=PT, ST=Some-State, O=IST, OU=SIRS, CN=sirs24
        Validity
            Not Before: Dec  9 16:59:00 2020 GMT
            Not After : Dec  9 16:59:00 2021 GMT
        Subject: C=PT, ST=Some-State, L=Lisbon, O=IST, OU=SIRS, CN=sirs24
        Subject Public Key Info:
            Public Key Algorithm: rsaEncryption
                RSA Public-Key: (2048 bit)
                Modulus:
                    00:c5:8d:f1:c0:1c:64:22:bb:44:62:32:f6:42:ce:
                    3b:24:60:c2:0c:fa:1c:b9:63:c5:1b:2d:fd:9f:b7:
                    86:c9:79:49:fe:1d:9b:62:d2:d9:13:75:b1:c0:a1:
                    a7:32:1b:ff:35:d0:9e:5f:fc:f5:a1:20:e4:86:01:
                    a1:e6:a9:23:92:fe:4e:8f:5c:86:dd:81:99:f9:0d:
                    41:d6:c7:5a:46:f3:87:e1:48:75:c8:d7:51:da:e9:
                    70:70:b4:e4:21:35:91:a5:c7:50:19:53:b5:22:4f:
                    79:c5:ed:96:17:b6:93:d2:dc:d7:f8:ff:34:c3:fa:
                    df:d2:30:0f:09:08:46:87:eb:5c:2e:0b:f3:d1:c0:
                    3a:5c:8e:4a:3a:0d:95:8f:be:d9:f8:55:5c:e7:c5:
                    1c:c6:2e:64:e8:ea:66:b6:b0:7c:e5:fa:78:4e:5c:
                    ff:85:a2:2b:4f:6e:bd:64:b0:ea:66:d5:d0:a3:1c:
                    de:ad:39:04:b0:c4:93:a4:24:82:06:03:8d:5c:74:
                    21:d1:fe:b7:bc:11:5c:35:2a:30:ac:d0:9c:ea:8d:
                    a0:66:71:9f:62:ca:3a:fb:b7:89:54:d7:6d:f5:99:
                    b7:e3:de:ab:f9:d2:0f:f6:21:a1:3b:61:25:f5:97:
                    20:3a:55:80:a4:19:f6:4d:d0:94:7a:a9:b4:e0:75:
                    b3:a5
                Exponent: 65537 (0x10001)
        X509v3 extensions:
            X509v3 Basic Constraints: 
                CA:FALSE
            Netscape Comment: 
                OpenSSL Generated Certificate
            X509v3 Subject Key Identifier: 
                C5:39:76:9A:2D:F4:EF:EA:9D:FB:1C:CC:CC:0D:FD:09:46:D5:F5:B8
            X509v3 Authority Key Identifier: 
                keyid:DE:D6:5B:B0:02:CB:01:0E:21:29:CC:3C:ED:ED:FD:BB:B9:48:2D:A2

    Signature Algorithm: sha256WithRSAEncryption
         c5:04:38:00:41:2a:99:28:ba:6c:a0:05:fb:9b:30:02:3e:5c:
         e7:b0:57:cf:26:6e:ea:a9:be:5b:3e:0b:74:0f:4d:95:98:f6:
         12:8d:c7:da:57:e1:97:f1:61:b1:95:6f:27:7f:6e:56:88:1c:
         81:93:21:7e:74:80:9f:f3:43:53:c3:98:1a:0b:63:9b:fa:74:
         f5:ad:fd:f0:78:4e:32:b9:d2:d4:d5:82:a1:e5:d3:30:01:29:
         bd:37:3a:6d:ef:a2:49:05:fb:ad:e0:f9:ee:4e:82:81:ca:15:
         3a:29:1d:83:b3:b9:2e:48:6f:11:8f:19:bd:ec:6b:e0:63:48:
         34:3a:d1:10:e4:c4:a9:1a:ed:4e:1b:88:4f:2f:57:46:88:56:
         b1:f5:44:6d:3d:8e:88:ea:c0:7e:b6:9a:83:c5:8f:67:64:68:
         ac:b2:d5:65:e8:ef:c8:4d:85:8f:fe:75:0c:a2:37:e9:68:ea:
         49:28:ec:a7:3d:a6:49:4b:6e:dc:33:cb:2d:99:1b:48:07:45:
         08:1d:a8:7d:9d:84:e1:7d:f2:1e:2a:36:04:4e:53:75:b4:1c:
         d5:93:f1:09:80:96:56:74:70:a0:4f:66:69:8d:e6:8a:bc:f3:
         5a:74:ff:70:68:53:ca:01:40:8e:5b:6d:3c:fc:58:49:4d:c8:
         fb:4b:9a:3a
-----BEGIN CERTIFICATE-----
MIIDujCCAqKgAwIBAgIUJBYKzKG2gVHjHgh5qXQgMbEm/iAwDQYJKoZIhvcNAQEL
BQAwUDELMAkGA1UEBhMCUFQxEzARBgNVBAgMClNvbWUtU3RhdGUxDDAKBgNVBAoM
A0lTVDENMAsGA1UECwwEU0lSUzEPMA0GA1UEAwwGc2lyczI0MB4XDTIwMTIwOTE2
NTkwMFoXDTIxMTIwOTE2NTkwMFowYTELMAkGA1UEBhMCUFQxEzARBgNVBAgMClNv
bWUtU3RhdGUxDzANBgNVBAcMBkxpc2JvbjEMMAoGA1UECgwDSVNUMQ0wCwYDVQQL
DARTSVJTMQ8wDQYDVQQDDAZzaXJzMjQwggEiMA0GCSqGSIb3DQEBAQUAA4IBDwAw
ggEKAoIBAQDFjfHAHGQiu0RiMvZCzjskYMIM+hy5Y8UbLf2ft4bJeUn+HZti0tkT
dbHAoacyG/810J5f/PWhIOSGAaHmqSOS/k6PXIbdgZn5DUHWx1pG84fhSHXI11Ha
6XBwtOQhNZGlx1AZU7UiT3nF7ZYXtpPS3Nf4/zTD+t/SMA8JCEaH61wuC/PRwDpc
jko6DZWPvtn4VVznxRzGLmTo6ma2sHzl+nhOXP+FoitPbr1ksOpm1dCjHN6tOQSw
xJOkJIIGA41cdCHR/re8EVw1KjCs0JzqjaBmcZ9iyjr7t4lU1231mbfj3qv50g/2
IaE7YSX1lyA6VYCkGfZN0JR6qbTgdbOlAgMBAAGjezB5MAkGA1UdEwQCMAAwLAYJ
YIZIAYb4QgENBB8WHU9wZW5TU0wgR2VuZXJhdGVkIENlcnRpZmljYXRlMB0GA1Ud
DgQWBBTFOXaaLfTv6p37HMzMDf0JRtX1uDAfBgNVHSMEGDAWgBTe1luwAssBDiEp
zDzt7f27uUgtojANBgkqhkiG9w0BAQsFAAOCAQEAxQQ4AEEqmSi6bKAF+5swAj5c
57BXzyZu6qm+Wz4LdA9NlZj2Eo3H2lfhl/FhsZVvJ39uVogcgZMhfnSAn/NDU8OY
Ggtjm/p09a398HhOMrnS1NWCoeXTMAEpvTc6be+iSQX7reD57k6CgcoVOikdg7O5
LkhvEY8Zvexr4GNINDrREOTEqRrtThuITy9XRohWsfVEbT2OiOrAfraag8WPZ2Ro
rLLVZejvyE2Fj/51DKI36WjqSSjspz2mSUtu3DPLLZkbSAdFCB2ofZ2E4X3yHio2
BE5TdbQc1ZPxCYCWVnRwoE9maY3mirzzWnT/cGhTygFAjlttPPxYSU3I+0uaOg==
-----END CERTIFICATE-----
