Certificate:
    Data:
        Version: 3 (0x2)
        Serial Number:
            24:16:0a:cc:a1:b6:81:51:e3:1e:08:79:a9:74:20:31:b1:26:fe:22
        Signature Algorithm: sha256WithRSAEncryption
        Issuer: C=PT, ST=Some-State, O=IST, OU=SIRS, CN=sirs24
        Validity
            Not Before: Dec 10 20:43:18 2020 GMT
            Not After : Dec 10 20:43:18 2021 GMT
        Subject: C=PT, ST=Some-State, L=Lisbon, O=IST, OU=SIRS, CN=manufacturer
        Subject Public Key Info:
            Public Key Algorithm: rsaEncryption
                RSA Public-Key: (2048 bit)
                Modulus:
                    00:c5:8d:f1:c0:1c:64:22:bb:44:62:32:f6:42:ce:
                    3b:24:60:c2:0c:fa:1c:b9:63:c5:1b:2d:fd:9f:b7:
                    86:c9:79:49:fe:1d:9b:62:d2:d9:13:75:b1:c0:a1:
                    a7:32:1b:ff:35:d0:9e:5f:fc:f5:a1:20:e4:86:01:
                    a1:e6:a9:23:92:fe:4e:8f:5c:86:dd:81:99:f9:0d:
                    41:d6:c7:5a:46:f3:87:e1:48:75:c8:d7:51:da:e9:
                    70:70:b4:e4:21:35:91:a5:c7:50:19:53:b5:22:4f:
                    79:c5:ed:96:17:b6:93:d2:dc:d7:f8:ff:34:c3:fa:
                    df:d2:30:0f:09:08:46:87:eb:5c:2e:0b:f3:d1:c0:
                    3a:5c:8e:4a:3a:0d:95:8f:be:d9:f8:55:5c:e7:c5:
                    1c:c6:2e:64:e8:ea:66:b6:b0:7c:e5:fa:78:4e:5c:
                    ff:85:a2:2b:4f:6e:bd:64:b0:ea:66:d5:d0:a3:1c:
                    de:ad:39:04:b0:c4:93:a4:24:82:06:03:8d:5c:74:
                    21:d1:fe:b7:bc:11:5c:35:2a:30:ac:d0:9c:ea:8d:
                    a0:66:71:9f:62:ca:3a:fb:b7:89:54:d7:6d:f5:99:
                    b7:e3:de:ab:f9:d2:0f:f6:21:a1:3b:61:25:f5:97:
                    20:3a:55:80:a4:19:f6:4d:d0:94:7a:a9:b4:e0:75:
                    b3:a5
                Exponent: 65537 (0x10001)
        X509v3 extensions:
            X509v3 Basic Constraints: 
                CA:FALSE
            Netscape Comment: 
                OpenSSL Generated Certificate
            X509v3 Subject Key Identifier: 
                C5:39:76:9A:2D:F4:EF:EA:9D:FB:1C:CC:CC:0D:FD:09:46:D5:F5:B8
            X509v3 Authority Key Identifier: 
                keyid:DE:D6:5B:B0:02:CB:01:0E:21:29:CC:3C:ED:ED:FD:BB:B9:48:2D:A2

    Signature Algorithm: sha256WithRSAEncryption
         2a:20:c5:ce:7e:38:b7:31:dc:94:64:bd:86:52:5a:9c:83:90:
         31:38:a9:0b:72:ad:f0:01:8a:53:0d:4c:01:c5:ef:fd:c6:ec:
         66:22:12:e0:40:0a:6b:04:46:f0:c3:e5:03:89:05:c6:18:a3:
         f0:7d:c7:1e:4c:79:81:f1:e6:a4:88:94:32:c2:ba:be:9e:5e:
         ce:c3:99:c5:a4:e8:1c:b2:3d:6a:45:d4:d9:e5:51:91:93:45:
         ac:b7:b5:fa:a3:e9:b0:fb:01:71:a7:c8:16:76:43:a8:fd:55:
         ba:4f:a4:b6:8c:fe:11:51:25:cb:99:61:91:25:53:a4:85:c4:
         61:30:9c:be:87:97:98:d4:0f:f3:74:7a:33:d8:75:77:99:06:
         8d:f6:13:3c:e7:a9:63:15:75:0f:ef:07:03:c2:cc:4c:25:79:
         18:7e:1e:2a:b3:3d:f8:b3:2a:d1:17:32:4c:df:62:e5:fb:99:
         ac:c8:f2:40:79:00:16:3e:ee:50:ad:b7:d4:60:5e:2b:25:49:
         5f:24:e4:15:77:55:03:d3:f1:15:55:50:f3:79:cb:8f:12:37:
         0f:7c:ac:f3:07:6f:60:de:67:da:8a:2c:6d:51:c5:ce:44:4c:
         07:bf:71:72:c3:1b:b4:7f:4a:95:da:25:5a:f7:dc:26:8d:93:
         74:3c:45:a1
-----BEGIN CERTIFICATE-----
MIIDwDCCAqigAwIBAgIUJBYKzKG2gVHjHgh5qXQgMbEm/iIwDQYJKoZIhvcNAQEL
BQAwUDELMAkGA1UEBhMCUFQxEzARBgNVBAgMClNvbWUtU3RhdGUxDDAKBgNVBAoM
A0lTVDENMAsGA1UECwwEU0lSUzEPMA0GA1UEAwwGc2lyczI0MB4XDTIwMTIxMDIw
NDMxOFoXDTIxMTIxMDIwNDMxOFowZzELMAkGA1UEBhMCUFQxEzARBgNVBAgMClNv
bWUtU3RhdGUxDzANBgNVBAcMBkxpc2JvbjEMMAoGA1UECgwDSVNUMQ0wCwYDVQQL
DARTSVJTMRUwEwYDVQQDDAxtYW51ZmFjdHVyZXIwggEiMA0GCSqGSIb3DQEBAQUA
A4IBDwAwggEKAoIBAQDFjfHAHGQiu0RiMvZCzjskYMIM+hy5Y8UbLf2ft4bJeUn+
HZti0tkTdbHAoacyG/810J5f/PWhIOSGAaHmqSOS/k6PXIbdgZn5DUHWx1pG84fh
SHXI11Ha6XBwtOQhNZGlx1AZU7UiT3nF7ZYXtpPS3Nf4/zTD+t/SMA8JCEaH61wu
C/PRwDpcjko6DZWPvtn4VVznxRzGLmTo6ma2sHzl+nhOXP+FoitPbr1ksOpm1dCj
HN6tOQSwxJOkJIIGA41cdCHR/re8EVw1KjCs0JzqjaBmcZ9iyjr7t4lU1231mbfj
3qv50g/2IaE7YSX1lyA6VYCkGfZN0JR6qbTgdbOlAgMBAAGjezB5MAkGA1UdEwQC
MAAwLAYJYIZIAYb4QgENBB8WHU9wZW5TU0wgR2VuZXJhdGVkIENlcnRpZmljYXRl
MB0GA1UdDgQWBBTFOXaaLfTv6p37HMzMDf0JRtX1uDAfBgNVHSMEGDAWgBTe1luw
AssBDiEpzDzt7f27uUgtojANBgkqhkiG9w0BAQsFAAOCAQEAKiDFzn44tzHclGS9
hlJanIOQMTipC3Kt8AGKUw1MAcXv/cbsZiIS4EAKawRG8MPlA4kFxhij8H3HHkx5
gfHmpIiUMsK6vp5ezsOZxaToHLI9akXU2eVRkZNFrLe1+qPpsPsBcafIFnZDqP1V
uk+ktoz+EVEly5lhkSVTpIXEYTCcvoeXmNQP83R6M9h1d5kGjfYTPOepYxV1D+8H
A8LMTCV5GH4eKrM9+LMq0RcyTN9i5fuZrMjyQHkAFj7uUK231GBeKyVJXyTkFXdV
A9PxFVVQ83nLjxI3D3ys8wdvYN5n2oosbVHFzkRMB79xcsMbtH9KldolWvfcJo2T
dDxFoQ==
-----END CERTIFICATE-----
