Certificate:
    Data:
        Version: 3 (0x2)
        Serial Number:
            24:16:0a:cc:a1:b6:81:51:e3:1e:08:79:a9:74:20:31:b1:26:fe:21
        Signature Algorithm: sha256WithRSAEncryption
        Issuer: C=PT, ST=Some-State, O=IST, OU=SIRS, CN=sirs24
        Validity
            Not Before: Dec 10 17:59:54 2020 GMT
            Not After : Dec 10 17:59:54 2021 GMT
        Subject: C=PT, ST=Some-State, L=Lisbon, O=IST, OU=sirs24, CN=Control Unit
        Subject Public Key Info:
            Public Key Algorithm: rsaEncryption
                RSA Public-Key: (2048 bit)
                Modulus:
                    00:c9:34:9e:e7:1e:d0:f0:42:54:38:1c:dd:5c:7c:
                    c2:70:f8:42:70:ba:92:25:2f:40:72:b5:e8:a8:85:
                    61:c3:ac:ca:4a:db:e9:4c:80:b0:5f:ea:3b:25:88:
                    37:e4:f4:bf:13:a0:90:19:e8:9b:68:b5:d2:c1:86:
                    6d:32:bd:ee:ab:e1:5a:82:b3:82:78:42:56:88:20:
                    6d:6c:bd:13:6f:8e:5f:fa:11:7d:46:5c:f2:ea:dd:
                    f0:72:9b:bd:2e:57:02:a7:c5:94:23:ae:e3:bd:07:
                    3e:29:04:a7:85:b8:6a:69:c6:fe:e2:d7:6a:f8:02:
                    f9:ba:33:22:10:7d:9c:a3:a7:b9:2c:43:dc:17:a9:
                    d0:aa:4e:f4:95:81:8b:eb:fc:e9:3e:41:14:2b:9a:
                    6f:a9:36:fd:38:e5:99:73:ed:42:27:53:d9:d8:3b:
                    89:43:6f:ab:8d:22:e4:7f:8c:d2:1d:3f:ef:3f:68:
                    5e:fb:75:eb:99:5f:6a:c0:4f:b6:bf:56:19:b0:ea:
                    89:2f:55:80:2c:62:3a:75:24:cf:d7:d7:18:b3:1a:
                    fc:0f:fc:9e:80:93:78:89:22:9f:31:48:58:78:b8:
                    87:19:bb:c0:de:b8:47:c5:4c:13:a3:35:75:cc:cf:
                    6c:15:cb:e9:94:df:92:51:72:3d:e6:f9:83:2f:a4:
                    31:3d
                Exponent: 65537 (0x10001)
        X509v3 extensions:
            X509v3 Basic Constraints: 
                CA:FALSE
            Netscape Comment: 
                OpenSSL Generated Certificate
            X509v3 Subject Key Identifier: 
                BF:BE:4A:16:C8:16:6E:4F:44:CA:53:4C:65:EE:45:17:9E:88:59:F4
            X509v3 Authority Key Identifier: 
                keyid:DE:D6:5B:B0:02:CB:01:0E:21:29:CC:3C:ED:ED:FD:BB:B9:48:2D:A2

    Signature Algorithm: sha256WithRSAEncryption
         68:6a:8c:4f:ff:b6:0b:4b:da:8a:50:c7:12:d3:e2:8e:a7:83:
         37:bb:ff:51:f7:52:2e:d4:79:17:74:b5:d3:e8:0f:d9:da:12:
         c9:ca:c4:35:9e:04:15:46:d3:f8:50:46:28:86:17:46:d5:7e:
         d7:93:d1:38:2e:71:c2:74:15:fb:a0:31:70:ad:5a:67:7a:66:
         4b:27:78:24:3e:4a:fc:8f:0a:8e:61:26:46:0d:ab:e1:22:25:
         12:f1:63:13:a6:e1:2b:0d:c6:c0:35:ff:11:0f:ef:2f:e8:9c:
         2b:73:20:4e:b9:18:9b:f6:65:3e:57:09:8d:8a:b3:6c:98:41:
         82:0d:c9:2e:93:13:cd:91:af:9e:fd:78:fa:0c:f6:d0:72:12:
         d9:8a:bf:3b:28:bd:b5:00:cf:a9:27:74:d6:f5:db:a8:d8:2a:
         32:ca:33:d1:de:c3:0d:35:07:eb:f6:9c:8c:ac:a1:92:45:40:
         a0:02:ed:53:79:81:5c:0b:8d:e9:f7:83:70:5f:9f:c0:7e:55:
         be:8c:33:5c:ef:5a:17:ab:8c:16:78:74:34:ba:88:25:fa:01:
         cd:c6:21:ae:9c:a1:75:54:52:7d:06:ef:29:91:9a:f5:4c:21:
         9f:a3:7b:cd:a0:3b:03:b1:40:52:3d:16:b7:9a:e2:62:c4:b2:
         e3:37:fa:ba
-----BEGIN CERTIFICATE-----
MIIDwjCCAqqgAwIBAgIUJBYKzKG2gVHjHgh5qXQgMbEm/iEwDQYJKoZIhvcNAQEL
BQAwUDELMAkGA1UEBhMCUFQxEzARBgNVBAgMClNvbWUtU3RhdGUxDDAKBgNVBAoM
A0lTVDENMAsGA1UECwwEU0lSUzEPMA0GA1UEAwwGc2lyczI0MB4XDTIwMTIxMDE3
NTk1NFoXDTIxMTIxMDE3NTk1NFowaTELMAkGA1UEBhMCUFQxEzARBgNVBAgMClNv
bWUtU3RhdGUxDzANBgNVBAcMBkxpc2JvbjEMMAoGA1UECgwDSVNUMQ8wDQYDVQQL
DAZzaXJzMjQxFTATBgNVBAMMDENvbnRyb2wgVW5pdDCCASIwDQYJKoZIhvcNAQEB
BQADggEPADCCAQoCggEBAMk0nuce0PBCVDgc3Vx8wnD4QnC6kiUvQHK16KiFYcOs
ykrb6UyAsF/qOyWIN+T0vxOgkBnom2i10sGGbTK97qvhWoKzgnhCVoggbWy9E2+O
X/oRfUZc8urd8HKbvS5XAqfFlCOu470HPikEp4W4amnG/uLXavgC+bozIhB9nKOn
uSxD3Bep0KpO9JWBi+v86T5BFCuab6k2/TjlmXPtQidT2dg7iUNvq40i5H+M0h0/
7z9oXvt165lfasBPtr9WGbDqiS9VgCxiOnUkz9fXGLMa/A/8noCTeIkinzFIWHi4
hxm7wN64R8VME6M1dczPbBXL6ZTfklFyPeb5gy+kMT0CAwEAAaN7MHkwCQYDVR0T
BAIwADAsBglghkgBhvhCAQ0EHxYdT3BlblNTTCBHZW5lcmF0ZWQgQ2VydGlmaWNh
dGUwHQYDVR0OBBYEFL++ShbIFm5PRMpTTGXuRReeiFn0MB8GA1UdIwQYMBaAFN7W
W7ACywEOISnMPO3t/bu5SC2iMA0GCSqGSIb3DQEBCwUAA4IBAQBoaoxP/7YLS9qK
UMcS0+KOp4M3u/9R91Iu1HkXdLXT6A/Z2hLJysQ1ngQVRtP4UEYohhdG1X7Xk9E4
LnHCdBX7oDFwrVpnemZLJ3gkPkr8jwqOYSZGDavhIiUS8WMTpuErDcbANf8RD+8v
6JwrcyBOuRib9mU+VwmNirNsmEGCDckukxPNka+e/Xj6DPbQchLZir87KL21AM+p
J3TW9duo2CoyyjPR3sMNNQfr9pyMrKGSRUCgAu1TeYFcC43p94NwX5/AflW+jDNc
71oXq4wWeHQ0uogl+gHNxiGunKF1VFJ9Bu8pkZr1TCGfo3vNoDsDsUBSPRa3muJi
xLLjN/q6
-----END CERTIFICATE-----
