Certificate:
    Data:
        Version: 3 (0x2)
        Serial Number:
            24:16:0a:cc:a1:b6:81:51:e3:1e:08:79:a9:74:20:31:b1:26:fe:1e
        Signature Algorithm: sha256WithRSAEncryption
        Issuer: C=PT, ST=Some-State, O=IST, OU=SIRS, CN=sirs24
        Validity
            Not Before: Dec  9 16:10:05 2020 GMT
            Not After : Dec  9 16:10:05 2023 GMT
        Subject: C=PT, ST=Some-State, O=IST, OU=SIRS, CN=sirs24
        Subject Public Key Info:
            Public Key Algorithm: rsaEncryption
                RSA Public-Key: (2048 bit)
                Modulus:
                    00:dd:c3:be:10:60:60:d4:f9:1b:63:fd:87:17:1e:
                    f4:3d:a9:16:02:ca:dd:30:93:b5:90:64:47:88:dc:
                    68:6b:05:03:f7:87:9d:78:56:29:03:b6:5e:c6:31:
                    53:fd:aa:c9:fa:1f:7b:49:ce:02:9b:5a:b4:60:ae:
                    a4:c4:44:5c:dd:5a:de:17:d1:18:16:d6:f4:82:8a:
                    35:7b:f5:f5:d6:38:75:65:f2:08:59:ca:48:e0:b4:
                    ba:80:b1:7b:9d:d3:11:37:c8:3a:63:73:93:c0:b0:
                    9d:d3:40:9a:c8:fc:e7:0b:e1:e4:98:27:69:be:9b:
                    13:6a:f6:0a:0b:7d:0e:37:4c:87:6b:df:23:89:69:
                    19:fa:22:2f:2d:45:92:7d:98:05:c7:b6:29:b0:75:
                    b8:4e:90:71:b7:52:8c:aa:7d:a5:71:c0:62:55:83:
                    ed:2e:a7:be:39:82:c4:62:c5:ba:2a:fe:4a:e7:e5:
                    14:c5:a1:72:7f:a7:a1:05:f9:3c:45:2f:ca:93:34:
                    27:76:96:d9:05:04:ff:b6:47:4b:8f:5d:66:16:2a:
                    9e:fe:98:8c:c1:b4:a8:28:b9:a5:f1:da:a6:04:04:
                    71:d5:9a:f3:27:7c:45:00:58:cc:28:23:f9:be:d2:
                    89:93:c3:e6:ca:fa:fb:ce:e2:4c:6f:93:07:6c:ad:
                    71:b9
                Exponent: 65537 (0x10001)
        X509v3 extensions:
            X509v3 Subject Key Identifier: 
                DE:D6:5B:B0:02:CB:01:0E:21:29:CC:3C:ED:ED:FD:BB:B9:48:2D:A2
            X509v3 Authority Key Identifier: 
                keyid:DE:D6:5B:B0:02:CB:01:0E:21:29:CC:3C:ED:ED:FD:BB:B9:48:2D:A2

            X509v3 Basic Constraints: critical
                CA:TRUE
    Signature Algorithm: sha256WithRSAEncryption
         73:99:05:f1:1e:74:ee:fc:60:a6:e1:11:78:bb:bb:5c:a2:59:
         7b:26:6f:25:2d:5d:57:dd:b0:d2:46:28:6d:c1:43:3d:db:80:
         a1:f4:70:73:f8:16:94:9e:88:2b:58:21:69:8e:d8:4e:f9:c8:
         a1:3d:cd:77:6e:69:e5:8b:56:e4:d2:ec:22:b1:99:9f:c8:cd:
         b2:23:2f:96:b9:7a:74:73:84:e3:17:d9:7d:61:ca:69:e4:43:
         2b:7d:3a:f7:52:87:15:c1:4a:87:ef:ed:a6:e6:bf:70:51:b3:
         38:06:8b:56:de:4c:a4:47:e0:0b:35:61:a7:ef:8b:f4:5b:ca:
         5f:15:cb:d2:c1:78:10:fb:55:18:90:17:36:5c:8d:b3:37:28:
         a8:97:97:2b:6d:b5:44:34:eb:a2:f3:01:af:67:3c:0d:f1:d2:
         c2:d5:4f:2e:84:e2:65:1c:1d:5b:d7:bc:6b:d6:38:ad:73:f3:
         c3:e4:85:03:ca:37:27:80:13:41:ec:4f:36:c3:a1:a7:36:fd:
         25:19:ba:b0:44:68:9d:fd:37:a7:f1:b1:36:3a:f7:bf:b9:17:
         2d:07:a3:3c:16:c5:60:96:1b:b4:63:4e:bc:f3:2e:54:1e:e0:
         02:a5:b6:3a:a5:0a:e8:18:06:f9:80:c1:5e:46:18:03:0a:01:
         61:3e:84:85
-----BEGIN CERTIFICATE-----
MIIDgTCCAmmgAwIBAgIUJBYKzKG2gVHjHgh5qXQgMbEm/h4wDQYJKoZIhvcNAQEL
BQAwUDELMAkGA1UEBhMCUFQxEzARBgNVBAgMClNvbWUtU3RhdGUxDDAKBgNVBAoM
A0lTVDENMAsGA1UECwwEU0lSUzEPMA0GA1UEAwwGc2lyczI0MB4XDTIwMTIwOTE2
MTAwNVoXDTIzMTIwOTE2MTAwNVowUDELMAkGA1UEBhMCUFQxEzARBgNVBAgMClNv
bWUtU3RhdGUxDDAKBgNVBAoMA0lTVDENMAsGA1UECwwEU0lSUzEPMA0GA1UEAwwG
c2lyczI0MIIBIjANBgkqhkiG9w0BAQEFAAOCAQ8AMIIBCgKCAQEA3cO+EGBg1Pkb
Y/2HFx70PakWAsrdMJO1kGRHiNxoawUD94edeFYpA7ZexjFT/arJ+h97Sc4Cm1q0
YK6kxERc3VreF9EYFtb0goo1e/X11jh1ZfIIWcpI4LS6gLF7ndMRN8g6Y3OTwLCd
00CayPznC+HkmCdpvpsTavYKC30ON0yHa98jiWkZ+iIvLUWSfZgFx7YpsHW4TpBx
t1KMqn2lccBiVYPtLqe+OYLEYsW6Kv5K5+UUxaFyf6ehBfk8RS/KkzQndpbZBQT/
tkdLj11mFiqe/piMwbSoKLml8dqmBARx1ZrzJ3xFAFjMKCP5vtKJk8Pmyvr7zuJM
b5MHbK1xuQIDAQABo1MwUTAdBgNVHQ4EFgQU3tZbsALLAQ4hKcw87e39u7lILaIw
HwYDVR0jBBgwFoAU3tZbsALLAQ4hKcw87e39u7lILaIwDwYDVR0TAQH/BAUwAwEB
/zANBgkqhkiG9w0BAQsFAAOCAQEAc5kF8R507vxgpuEReLu7XKJZeyZvJS1dV92w
0kYobcFDPduAofRwc/gWlJ6IK1ghaY7YTvnIoT3Nd25p5YtW5NLsIrGZn8jNsiMv
lrl6dHOE4xfZfWHKaeRDK30691KHFcFKh+/tpua/cFGzOAaLVt5MpEfgCzVhp++L
9FvKXxXL0sF4EPtVGJAXNlyNszcoqJeXK221RDTrovMBr2c8DfHSwtVPLoTiZRwd
W9e8a9Y4rXPzw+SFA8o3J4ATQexPNsOhpzb9JRm6sERonf03p/GxNjr3v7kXLQej
PBbFYJYbtGNOvPMuVB7gAqW2OqUK6BgG+YDBXkYYAwoBYT6EhQ==
-----END CERTIFICATE-----
