Certificate:
    Data:
        Version: 3 (0x2)
        Serial Number:
            24:16:0a:cc:a1:b6:81:51:e3:1e:08:79:a9:74:20:31:b1:26:fe:1f
        Signature Algorithm: sha256WithRSAEncryption
        Issuer: C=PT, ST=Some-State, O=IST, OU=SIRS, CN=sirs24
        Validity
            Not Before: Dec  9 16:30:31 2020 GMT
            Not After : Dec  9 16:30:31 2021 GMT
        Subject: C=PT, ST=Some-State, L=Lisbon, O=IST, CN=TEE
        Subject Public Key Info:
            Public Key Algorithm: rsaEncryption
                RSA Public-Key: (2048 bit)
                Modulus:
                    00:a5:f2:11:9f:de:44:75:04:29:20:6c:38:3b:fd:
                    f8:0d:26:e1:44:a2:19:ce:51:40:3d:bb:b2:34:08:
                    19:4e:e6:9c:98:63:bb:42:c5:a5:25:73:2f:ff:d2:
                    19:f1:ac:a9:e3:e4:dd:34:65:40:fa:ae:13:f0:6c:
                    c7:35:f1:0e:bc:98:c1:7a:6e:df:dd:96:6d:04:a1:
                    75:42:5b:cd:17:f6:8c:f9:91:3d:d0:fd:a6:b7:1c:
                    76:55:38:b8:a1:96:a7:ec:79:32:c8:74:fb:8a:4b:
                    58:53:3c:8f:bd:65:cc:7b:9c:f3:dd:20:ab:c5:89:
                    eb:2b:19:d8:8d:41:05:7f:08:d3:1f:8a:d5:96:05:
                    8b:3d:c0:36:e5:60:30:c3:ee:8e:69:4e:a9:be:22:
                    d8:59:49:21:72:d7:1c:ab:88:e7:8d:f0:d1:3b:07:
                    8b:82:5b:a0:e2:9b:4a:98:63:fc:4c:fd:ae:9e:91:
                    a0:5b:bc:da:98:fd:c3:26:32:09:43:b4:cb:60:2a:
                    ff:dd:65:a1:ee:01:47:da:7e:65:09:b3:6c:3c:36:
                    8f:fd:ea:f0:f3:f6:68:a5:5b:3d:e2:52:b3:2d:eb:
                    e8:89:a5:88:96:6a:b6:2a:f8:ba:3f:db:c9:ab:4d:
                    ce:92:bb:bf:6a:e4:4b:4f:a8:63:18:bc:8c:bd:63:
                    c9:8f
                Exponent: 65537 (0x10001)
        X509v3 extensions:
            X509v3 Basic Constraints: 
                CA:FALSE
            Netscape Comment: 
                OpenSSL Generated Certificate
            X509v3 Subject Key Identifier: 
                17:34:96:54:10:8D:2D:9C:1A:78:1A:B4:04:57:BF:FD:F3:28:14:E3
            X509v3 Authority Key Identifier: 
                keyid:DE:D6:5B:B0:02:CB:01:0E:21:29:CC:3C:ED:ED:FD:BB:B9:48:2D:A2

    Signature Algorithm: sha256WithRSAEncryption
         07:24:87:a0:6a:c3:01:4d:cd:dd:26:16:a2:c3:ed:7c:44:23:
         9c:64:f2:09:b2:42:5f:c7:ae:05:62:e6:bf:e2:97:48:c8:64:
         49:df:5f:7d:80:df:de:24:8e:f2:92:25:e2:66:a8:92:c5:13:
         11:48:0a:a9:d9:0c:ee:45:c0:70:dd:e3:84:a7:9b:ae:f3:58:
         30:4c:c5:2b:a1:91:74:67:23:87:af:ba:42:c8:1b:e3:43:e1:
         9d:c8:e0:ce:69:81:eb:25:9b:6c:16:0a:d1:1f:c8:08:ba:41:
         0b:a9:50:27:a3:55:4b:40:a7:48:8e:2e:f9:56:a2:0c:2e:b7:
         d8:eb:86:e3:c9:c0:76:a4:7b:7d:f9:e1:32:5a:dd:db:1c:fa:
         f4:e4:5e:c9:98:2e:43:5e:20:07:a9:fa:eb:c8:22:b4:7d:82:
         84:cd:8c:61:20:25:24:47:95:90:3a:dc:1c:25:e1:d9:10:ff:
         dc:46:2f:d1:7a:36:2f:aa:7c:09:02:3e:2b:b6:a7:b4:94:cd:
         e4:6e:7e:f7:2a:e0:c1:85:29:31:53:53:2e:84:27:8d:f9:2a:
         d2:37:2c:f8:a4:40:60:34:8a:92:75:93:6c:4d:a1:65:44:a9:
         8b:fb:4d:13:42:88:89:a7:92:41:bc:4b:dc:12:62:9d:72:e1:
         79:7d:86:6e
-----BEGIN CERTIFICATE-----
MIIDqDCCApCgAwIBAgIUJBYKzKG2gVHjHgh5qXQgMbEm/h8wDQYJKoZIhvcNAQEL
BQAwUDELMAkGA1UEBhMCUFQxEzARBgNVBAgMClNvbWUtU3RhdGUxDDAKBgNVBAoM
A0lTVDENMAsGA1UECwwEU0lSUzEPMA0GA1UEAwwGc2lyczI0MB4XDTIwMTIwOTE2
MzAzMVoXDTIxMTIwOTE2MzAzMVowTzELMAkGA1UEBhMCUFQxEzARBgNVBAgMClNv
bWUtU3RhdGUxDzANBgNVBAcMBkxpc2JvbjEMMAoGA1UECgwDSVNUMQwwCgYDVQQD
DANURUUwggEiMA0GCSqGSIb3DQEBAQUAA4IBDwAwggEKAoIBAQCl8hGf3kR1BCkg
bDg7/fgNJuFEohnOUUA9u7I0CBlO5pyYY7tCxaUlcy//0hnxrKnj5N00ZUD6rhPw
bMc18Q68mMF6bt/dlm0EoXVCW80X9oz5kT3Q/aa3HHZVOLihlqfseTLIdPuKS1hT
PI+9Zcx7nPPdIKvFiesrGdiNQQV/CNMfitWWBYs9wDblYDDD7o5pTqm+IthZSSFy
1xyriOeN8NE7B4uCW6Dim0qYY/xM/a6ekaBbvNqY/cMmMglDtMtgKv/dZaHuAUfa
fmUJs2w8No/96vDz9milWz3iUrMt6+iJpYiWarYq+Lo/28mrTc6Su79q5EtPqGMY
vIy9Y8mPAgMBAAGjezB5MAkGA1UdEwQCMAAwLAYJYIZIAYb4QgENBB8WHU9wZW5T
U0wgR2VuZXJhdGVkIENlcnRpZmljYXRlMB0GA1UdDgQWBBQXNJZUEI0tnBp4GrQE
V7/98ygU4zAfBgNVHSMEGDAWgBTe1luwAssBDiEpzDzt7f27uUgtojANBgkqhkiG
9w0BAQsFAAOCAQEABySHoGrDAU3N3SYWosPtfEQjnGTyCbJCX8euBWLmv+KXSMhk
Sd9ffYDf3iSO8pIl4maoksUTEUgKqdkM7kXAcN3jhKebrvNYMEzFK6GRdGcjh6+6
Qsgb40PhncjgzmmB6yWbbBYK0R/ICLpBC6lQJ6NVS0CnSI4u+VaiDC632OuG48nA
dqR7ffnhMlrd2xz69OReyZguQ14gB6n668gitH2ChM2MYSAlJEeVkDrcHCXh2RD/
3EYv0Xo2L6p8CQI+K7antJTN5G5+9yrgwYUpMVNTLoQnjfkq0jcs+KRAYDSKknWT
bE2hZUSpi/tNE0KIiaeSQbxL3BJinXLheX2Gbg==
-----END CERTIFICATE-----
