Certificate:
    Data:
        Version: 3 (0x2)
        Serial Number:
            24:16:0a:cc:a1:b6:81:51:e3:1e:08:79:a9:74:20:31:b1:26:fe:23
        Signature Algorithm: sha256WithRSAEncryption
        Issuer: C=PT, ST=Some-State, O=IST, OU=SIRS, CN=sirs24
        Validity
            Not Before: Dec 11 22:56:47 2020 GMT
            Not After : Dec 11 22:56:47 2021 GMT
        Subject: C=PT, ST=Some-State, L=Lisbon, O=IST, OU=SIRS, CN=engine
        Subject Public Key Info:
            Public Key Algorithm: rsaEncryption
                RSA Public-Key: (2048 bit)
                Modulus:
                    00:ad:60:e2:12:42:fa:05:b9:51:2f:42:ac:9c:83:
                    07:21:2f:03:7c:36:d6:eb:60:32:02:23:74:4e:58:
                    88:50:eb:6c:31:1b:9b:b2:95:c8:ce:10:79:68:4c:
                    b2:5e:d0:0a:08:e1:a0:13:00:13:12:c4:e7:7e:d7:
                    b2:97:e8:a4:23:1f:4c:73:55:4a:a8:5d:a3:c1:fd:
                    fe:cb:a3:e6:61:69:ef:ac:9d:9a:51:14:76:f8:10:
                    83:7b:95:9f:cc:02:f6:b6:14:1f:e7:8b:c5:5a:dd:
                    b6:1a:6d:8b:3c:43:2a:39:51:7e:ef:3f:bc:ff:78:
                    da:41:71:b7:54:23:20:2a:f2:e6:d7:30:7c:4e:9c:
                    a4:ce:46:4f:8f:d4:fb:48:fb:41:21:34:e4:8e:21:
                    3c:53:fd:cb:1f:27:f7:f5:69:7f:30:33:59:1d:cd:
                    bb:e3:28:88:38:26:a5:61:a8:f4:41:00:b4:10:ef:
                    dc:75:11:63:1d:b3:f1:ba:73:5c:06:13:8b:32:7d:
                    07:a6:90:68:57:29:a8:45:d2:39:be:3f:8e:e7:c5:
                    98:b8:96:c5:74:0c:75:dd:0a:41:f7:76:44:72:a4:
                    e8:0c:65:fe:ca:d9:6b:ac:39:0c:67:6a:c2:ff:41:
                    d1:c7:35:91:a6:5c:48:2a:99:2a:e0:a8:10:29:15:
                    ad:c5
                Exponent: 65537 (0x10001)
        X509v3 extensions:
            X509v3 Basic Constraints: 
                CA:FALSE
            Netscape Comment: 
                OpenSSL Generated Certificate
            X509v3 Subject Key Identifier: 
                B0:B0:DA:FF:38:1A:4B:38:2D:F6:66:1C:21:EB:49:C3:DD:59:3F:EB
            X509v3 Authority Key Identifier: 
                keyid:DE:D6:5B:B0:02:CB:01:0E:21:29:CC:3C:ED:ED:FD:BB:B9:48:2D:A2

    Signature Algorithm: sha256WithRSAEncryption
         05:f8:7e:e0:fe:0d:8a:76:69:af:96:9c:89:b4:22:b7:89:d3:
         2c:b4:1f:62:90:f1:18:56:24:54:8e:a4:bf:ed:f7:be:c1:6c:
         01:44:a9:6d:bf:36:e7:b9:fe:5a:8c:ae:71:73:c5:fe:33:07:
         c9:a8:26:10:38:b3:7d:ae:29:ab:87:6e:b3:a3:2a:79:61:31:
         85:a1:af:38:79:f5:c7:e7:bd:55:dd:0c:b5:d8:56:22:75:f7:
         e6:17:6a:9c:27:69:bd:1e:0f:a1:22:51:3e:1e:5d:e6:7c:5a:
         53:cd:e9:8d:27:6c:ed:37:ee:83:61:47:b8:47:4f:7f:45:f6:
         08:b8:f1:5b:12:08:95:6f:44:b7:a4:19:fd:a4:58:67:1d:6b:
         b8:ca:8f:d7:26:b8:02:56:0e:2a:c3:48:15:9a:67:e5:79:e8:
         93:e9:07:3d:2d:2c:ac:0e:6a:63:a3:45:56:38:cc:1a:04:7e:
         38:7b:de:ae:cf:ae:9f:0f:21:78:a9:05:91:dd:41:27:d3:2e:
         50:8c:12:df:91:8b:fa:fd:c8:36:2d:44:df:c3:d1:75:b9:37:
         72:9a:d6:b2:2c:57:77:c9:39:ba:bf:4a:5d:33:13:b9:c4:b8:
         3c:3a:85:bf:86:3a:db:50:f0:7c:44:45:63:15:a1:21:04:cc:
         b2:78:1c:64
-----BEGIN CERTIFICATE-----
MIIDujCCAqKgAwIBAgIUJBYKzKG2gVHjHgh5qXQgMbEm/iMwDQYJKoZIhvcNAQEL
BQAwUDELMAkGA1UEBhMCUFQxEzARBgNVBAgMClNvbWUtU3RhdGUxDDAKBgNVBAoM
A0lTVDENMAsGA1UECwwEU0lSUzEPMA0GA1UEAwwGc2lyczI0MB4XDTIwMTIxMTIy
NTY0N1oXDTIxMTIxMTIyNTY0N1owYTELMAkGA1UEBhMCUFQxEzARBgNVBAgMClNv
bWUtU3RhdGUxDzANBgNVBAcMBkxpc2JvbjEMMAoGA1UECgwDSVNUMQ0wCwYDVQQL
DARTSVJTMQ8wDQYDVQQDDAZlbmdpbmUwggEiMA0GCSqGSIb3DQEBAQUAA4IBDwAw
ggEKAoIBAQCtYOISQvoFuVEvQqycgwchLwN8NtbrYDICI3ROWIhQ62wxG5uylcjO
EHloTLJe0AoI4aATABMSxOd+17KX6KQjH0xzVUqoXaPB/f7Lo+Zhae+snZpRFHb4
EIN7lZ/MAva2FB/ni8Va3bYabYs8Qyo5UX7vP7z/eNpBcbdUIyAq8ubXMHxOnKTO
Rk+P1PtI+0EhNOSOITxT/csfJ/f1aX8wM1kdzbvjKIg4JqVhqPRBALQQ79x1EWMd
s/G6c1wGE4syfQemkGhXKahF0jm+P47nxZi4lsV0DHXdCkH3dkRypOgMZf7K2Wus
OQxnasL/QdHHNZGmXEgqmSrgqBApFa3FAgMBAAGjezB5MAkGA1UdEwQCMAAwLAYJ
YIZIAYb4QgENBB8WHU9wZW5TU0wgR2VuZXJhdGVkIENlcnRpZmljYXRlMB0GA1Ud
DgQWBBSwsNr/OBpLOC32Zhwh60nD3Vk/6zAfBgNVHSMEGDAWgBTe1luwAssBDiEp
zDzt7f27uUgtojANBgkqhkiG9w0BAQsFAAOCAQEABfh+4P4NinZpr5acibQit4nT
LLQfYpDxGFYkVI6kv+33vsFsAUSpbb8257n+WoyucXPF/jMHyagmEDizfa4pq4du
s6MqeWExhaGvOHn1x+e9Vd0MtdhWInX35hdqnCdpvR4PoSJRPh5d5nxaU83pjSds
7Tfug2FHuEdPf0X2CLjxWxIIlW9Et6QZ/aRYZx1ruMqP1ya4AlYOKsNIFZpn5Xno
k+kHPS0srA5qY6NFVjjMGgR+OHvers+unw8heKkFkd1BJ9MuUIwS35GL+v3INi1E
38PRdbk3cprWsixXd8k5ur9KXTMTucS4PDqFv4Y621DwfERFYxWhIQTMsngcZA==
-----END CERTIFICATE-----
